target datalayout = "e-m:e-p270:32:32-p271:32:32-p272:64:64-i64:64-i128:128-f80:128-n8:16:32:64-S128"
target triple = "x86_64-unknown-linux-gnu"

%"class.fmt::v10::file" = type { i32 }
%class.output_redirect = type { ptr, %"class.fmt::v10::file", %"class.fmt::v10::file" }

; Function Attrs: mustprogress uwtable
define linkonce_odr hidden noundef nonnull align 4 dereferenceable(4) ptr @_ZN3fmt3v104fileaSEOS1_(ptr noundef nonnull align 4 dereferenceable(4) %this, ptr noundef nonnull align 4 dereferenceable(4) %other) #4 comdat align 2 {
entry:
  %this.addr = alloca ptr, align 8
  %other.addr = alloca ptr, align 8
  store ptr %this, ptr %this.addr, align 8
  store ptr %other, ptr %other.addr, align 8
  %this1 = load ptr, ptr %this.addr, align 8
  call void @_ZN3fmt3v104file5closeEv(ptr noundef nonnull align 4 dereferenceable(4) %this1)
  %0 = load ptr, ptr %other.addr, align 8
  %fd_ = getelementptr inbounds %"class.fmt::v10::file", ptr %0, i32 0, i32 0
  %1 = load i32, ptr %fd_, align 4
  %fd_2 = getelementptr inbounds %"class.fmt::v10::file", ptr %this1, i32 0, i32 0
  store i32 %1, ptr %fd_2, align 4
  %2 = load ptr, ptr %other.addr, align 8
  %fd_3 = getelementptr inbounds %"class.fmt::v10::file", ptr %2, i32 0, i32 0
  store i32 -1, ptr %fd_3, align 4
  ret ptr %this1
}

; Function Attrs: mustprogress nounwind uwtable
define linkonce_odr hidden void @_ZN3fmt3v104fileC2Ev(ptr noundef nonnull align 4 dereferenceable(4) %this) unnamed_addr #5 comdat align 2 {
entry:
  %this.addr = alloca ptr, align 8
  store ptr %this, ptr %this.addr, align 8
  %this1 = load ptr, ptr %this.addr, align 8
  %fd_ = getelementptr inbounds %"class.fmt::v10::file", ptr %this1, i32 0, i32 0
  store i32 -1, ptr %fd_, align 4
  ret void
}

; Function Attrs: mustprogress uwtable
define hidden void @_ZN15output_redirectC2EP8_IO_FILEb(ptr noundef nonnull align 8 dereferenceable(16) %this, ptr noundef %f, i1 noundef zeroext %flush) unnamed_addr #4 align 2 personality ptr @__gxx_personality_v0 {
entry:
  %this.addr = alloca ptr, align 8
  %f.addr = alloca ptr, align 8
  %flush.addr = alloca i8, align 1
  %exn.slot = alloca ptr, align 8
  %ehselector.slot = alloca i32, align 4
  %fd = alloca i32, align 4
  %ref.tmp = alloca %"class.fmt::v10::file", align 4
  %write_end = alloca %"class.fmt::v10::file", align 4
  store ptr %this, ptr %this.addr, align 8
  store ptr %f, ptr %f.addr, align 8
  %frombool = zext i1 %flush to i8
  store i8 %frombool, ptr %flush.addr, align 1
  %this1 = load ptr, ptr %this.addr, align 8
  %file_ = getelementptr inbounds %class.output_redirect, ptr %this1, i32 0, i32 0
  %0 = load ptr, ptr %f.addr, align 8
  store ptr %0, ptr %file_, align 8
  %original_ = getelementptr inbounds %class.output_redirect, ptr %this1, i32 0, i32 1
  call void @_ZN3fmt3v104fileC2Ev(ptr noundef nonnull align 4 dereferenceable(4) %original_) #3
  %read_end_ = getelementptr inbounds %class.output_redirect, ptr %this1, i32 0, i32 2
  call void @_ZN3fmt3v104fileC2Ev(ptr noundef nonnull align 4 dereferenceable(4) %read_end_) #3
  %1 = load i8, ptr %flush.addr, align 1
  %tobool = trunc i8 %1 to i1
  br i1 %tobool, label %if.then, label %if.end

if.then:                                          ; preds = %entry
  invoke void @_ZN15output_redirect5flushEv(ptr noundef nonnull align 8 dereferenceable(16) %this1)
          to label %invoke.cont unwind label %lpad

invoke.cont:                                      ; preds = %if.then
  br label %if.end

lpad:                                             ; preds = %if.end, %if.then
  %2 = landingpad { ptr, i32 }
          cleanup
  %3 = extractvalue { ptr, i32 } %2, 0
  store ptr %3, ptr %exn.slot, align 8
  %4 = extractvalue { ptr, i32 } %2, 1
  store i32 %4, ptr %ehselector.slot, align 4
  br label %ehcleanup

if.end:                                           ; preds = %invoke.cont, %entry
  %5 = load ptr, ptr %f.addr, align 8
  %call = call i32 @fileno(ptr noundef %5) #3
  store i32 %call, ptr %fd, align 4
  %6 = load i32, ptr %fd, align 4
  invoke void @_ZN3fmt3v104file3dupEi(ptr sret(%"class.fmt::v10::file") align 4 %ref.tmp, i32 noundef %6)
          to label %invoke.cont2 unwind label %lpad

invoke.cont2:                                     ; preds = %if.end
  %original_3 = getelementptr inbounds %class.output_redirect, ptr %this1, i32 0, i32 1
  %call6 = invoke noundef nonnull align 4 dereferenceable(4) ptr @_ZN3fmt3v104fileaSEOS1_(ptr noundef nonnull align 4 dereferenceable(4) %original_3, ptr noundef nonnull align 4 dereferenceable(4) %ref.tmp)
          to label %invoke.cont5 unwind label %lpad4

invoke.cont5:                                     ; preds = %invoke.cont2
  call void @_ZN3fmt3v104fileD1Ev(ptr noundef nonnull align 4 dereferenceable(4) %ref.tmp) #3
  call void @_ZN3fmt3v104fileC2Ev(ptr noundef nonnull align 4 dereferenceable(4) %write_end) #3
  %read_end_7 = getelementptr inbounds %class.output_redirect, ptr %this1, i32 0, i32 2
  invoke void @_ZN3fmt3v104file4pipeERS1_S2_(ptr noundef nonnull align 4 dereferenceable(4) %read_end_7, ptr noundef nonnull align 4 dereferenceable(4) %write_end)
          to label %invoke.cont9 unwind label %lpad8

invoke.cont9:                                     ; preds = %invoke.cont5
  %7 = load i32, ptr %fd, align 4
  invoke void @_ZN3fmt3v104file4dup2Ei(ptr noundef nonnull align 4 dereferenceable(4) %write_end, i32 noundef %7)
          to label %invoke.cont10 unwind label %lpad8

invoke.cont10:                                    ; preds = %invoke.cont9
  call void @_ZN3fmt3v104fileD1Ev(ptr noundef nonnull align 4 dereferenceable(4) %write_end) #3
  ret void

lpad4:                                            ; preds = %invoke.cont2
  %8 = landingpad { ptr, i32 }
          cleanup
  %9 = extractvalue { ptr, i32 } %8, 0
  store ptr %9, ptr %exn.slot, align 8
  %10 = extractvalue { ptr, i32 } %8, 1
  store i32 %10, ptr %ehselector.slot, align 4
  call void @_ZN3fmt3v104fileD1Ev(ptr noundef nonnull align 4 dereferenceable(4) %ref.tmp) #3
  br label %ehcleanup

lpad8:                                            ; preds = %invoke.cont9, %invoke.cont5
  %11 = landingpad { ptr, i32 }
          cleanup
  %12 = extractvalue { ptr, i32 } %11, 0
  store ptr %12, ptr %exn.slot, align 8
  %13 = extractvalue { ptr, i32 } %11, 1
  store i32 %13, ptr %ehselector.slot, align 4
  call void @_ZN3fmt3v104fileD1Ev(ptr noundef nonnull align 4 dereferenceable(4) %write_end) #3
  br label %ehcleanup

ehcleanup:                                        ; preds = %lpad8, %lpad4, %lpad
  call void @_ZN3fmt3v104fileD1Ev(ptr noundef nonnull align 4 dereferenceable(4) %read_end_) #3
  call void @_ZN3fmt3v104fileD1Ev(ptr noundef nonnull align 4 dereferenceable(4) %original_) #3
  br label %eh.resume

eh.resume:                                        ; preds = %ehcleanup
  %exn = load ptr, ptr %exn.slot, align 8
  %sel = load i32, ptr %ehselector.slot, align 4
  %lpad.val = insertvalue { ptr, i32 } poison, ptr %exn, 0
  %lpad.val12 = insertvalue { ptr, i32 } %lpad.val, i32 %sel, 1
  resume { ptr, i32 } %lpad.val12
}