; Function Attrs: mustprogress uwtable
define hidden void @_ZN15output_redirectC2EP8_IO_FILEb(ptr noundef nonnull align 8 dereferenceable(16) %this, ptr noundef %f, i1 noundef zeroext %flush) unnamed_addr #3 align 2 personality ptr @__gxx_personality_v0 {
entry:
  %ref.tmp = alloca %"class.fmt::v10::file", align 4
  %write_end = alloca %"class.fmt::v10::file", align 4
  store ptr %f, ptr %this, align 8
  %original_ = getelementptr inbounds i8, ptr %this, i64 8
  store i32 -1, ptr %original_, align 8
  %read_end_ = getelementptr inbounds i8, ptr %this, i64 12
  store i32 -1, ptr %read_end_, align 4
  br i1 %flush, label %if.then, label %if.end

if.then:                                          ; preds = %entry
  invoke void @_ZN15output_redirect5flushEv(ptr noundef nonnull align 8 dereferenceable(16) %this)
          to label %if.end unwind label %lpad

lpad:                                             ; preds = %if.end, %if.then
  %0 = landingpad { ptr, i32 }
          cleanup
  br label %ehcleanup

if.end:                                           ; preds = %if.then, %entry
  %call = tail call i32 @fileno(ptr noundef %f) #25
  invoke void @_ZN3fmt3v104file3dupEi(ptr nonnull sret(%"class.fmt::v10::file") align 4 %ref.tmp, i32 noundef %call)
          to label %invoke.cont2 unwind label %lpad

invoke.cont2:                                     ; preds = %if.end
  invoke void @_ZN3fmt3v104file5closeEv(ptr noundef nonnull align 4 dereferenceable(4) %original_)
          to label %invoke.cont5 unwind label %lpad4

invoke.cont5:                                     ; preds = %invoke.cont2
  %1 = load i32, ptr %ref.tmp, align 4
  store i32 %1, ptr %original_, align 8
  store i32 -1, ptr %ref.tmp, align 4
  call void @_ZN3fmt3v104fileD1Ev(ptr noundef nonnull align 4 dereferenceable(4) %ref.tmp) #25
  store i32 -1, ptr %write_end, align 4
  invoke void @_ZN3fmt3v104file4pipeERS1_S2_(ptr noundef nonnull align 4 dereferenceable(4) %read_end_, ptr noundef nonnull align 4 dereferenceable(4) %write_end)
          to label %invoke.cont9 unwind label %lpad8

invoke.cont9:                                     ; preds = %invoke.cont5
  invoke void @_ZN3fmt3v104file4dup2Ei(ptr noundef nonnull align 4 dereferenceable(4) %write_end, i32 noundef %call)
          to label %invoke.cont10 unwind label %lpad8

invoke.cont10:                                    ; preds = %invoke.cont9
  call void @_ZN3fmt3v104fileD1Ev(ptr noundef nonnull align 4 dereferenceable(4) %write_end) #25
  ret void

lpad4:                                            ; preds = %invoke.cont2
  %2 = landingpad { ptr, i32 }
          cleanup
  call void @_ZN3fmt3v104fileD1Ev(ptr noundef nonnull align 4 dereferenceable(4) %ref.tmp) #25
  br label %ehcleanup

lpad8:                                            ; preds = %invoke.cont9, %invoke.cont5
  %3 = landingpad { ptr, i32 }
          cleanup
  call void @_ZN3fmt3v104fileD1Ev(ptr noundef nonnull align 4 dereferenceable(4) %write_end) #25
  br label %ehcleanup

ehcleanup:                                        ; preds = %lpad8, %lpad4, %lpad
  %.pn = phi { ptr, i32 } [ %3, %lpad8 ], [ %2, %lpad4 ], [ %0, %lpad ]
  call void @_ZN3fmt3v104fileD1Ev(ptr noundef nonnull align 4 dereferenceable(4) %read_end_) #25
  call void @_ZN3fmt3v104fileD1Ev(ptr noundef nonnull align 4 dereferenceable(4) %original_) #25
  resume { ptr, i32 } %.pn
}